; Function Attrs: mustprogress uwtable
define float @_ZNK5nblib23NonBondedInteractionMap6getC12ERKNS_10StrongTypeINSt7__cxx1112basic_stringIcSt11char_traitsIcESaIcEEENS_25ParticleTypeNameParameterEEESB_(ptr noundef nonnull align 8 dereferenceable(48) %0, ptr noundef nonnull align 8 dereferenceable(32) %1, ptr noundef nonnull align 8 dereferenceable(32) %2) local_unnamed_addr #0 align 2 personality ptr @__gxx_personality_v0 {
  %4 = alloca %"class.std::tuple", align 8
  call void @llvm.lifetime.start.p0(i64 64, ptr nonnull %4) #22
  call void @_ZNSt11_Tuple_implILm0EJN5nblib10StrongTypeINSt7__cxx1112basic_stringIcSt11char_traitsIcESaIcEEENS0_25ParticleTypeNameParameterEEES9_EEC2ERKS9_SC_(ptr noundef nonnull align 8 dereferenceable(64) %4, ptr noundef nonnull align 8 dereferenceable(32) %1, ptr noundef nonnull align 8 dereferenceable(32) %2)
  %5 = invoke noundef nonnull align 4 dereferenceable(8) ptr @_ZNKSt3mapISt5tupleIJN5nblib10StrongTypeINSt7__cxx1112basic_stringIcSt11char_traitsIcESaIcEEENS1_25ParticleTypeNameParameterEEESA_EES0_IJNS2_IfNS1_11C6ParameterEEENS2_IfNS1_12C12ParameterEEEEESt4lessISB_ESaISt4pairIKSB_SG_EEE2atERSK_(ptr noundef nonnull align 8 dereferenceable(48) %0, ptr noundef nonnull align 8 dereferenceable(64) %4)
          to label %6 unwind label %24

6:                                                ; preds = %3
  %.sroa.0.0.copyload = load float, ptr %5, align 4, !tbaa !4
  %7 = getelementptr inbounds nuw i8, ptr %4, i64 32
  %8 = load ptr, ptr %7, align 8, !tbaa !8
  %9 = getelementptr inbounds nuw i8, ptr %4, i64 48
  %10 = icmp eq ptr %8, %9
  br i1 %10, label %_ZNKSt7__cxx1112basic_stringIcSt11char_traitsIcESaIcEE11_M_is_localEv.exit.thread.i.i.i.i.i, label %_ZNKSt7__cxx1112basic_stringIcSt11char_traitsIcESaIcEE11_M_is_localEv.exit.i.i.i.i.i

_ZNKSt7__cxx1112basic_stringIcSt11char_traitsIcESaIcEE11_M_is_localEv.exit.thread.i.i.i.i.i: ; preds = %6
  %11 = getelementptr inbounds nuw i8, ptr %4, i64 40
  %12 = load i64, ptr %11, align 8, !tbaa !14
  %13 = icmp ult i64 %12, 16
  call void @llvm.assume(i1 %13)
  br label %_ZNSt10_Head_baseILm0EN5nblib10StrongTypeINSt7__cxx1112basic_stringIcSt11char_traitsIcESaIcEEENS0_25ParticleTypeNameParameterEEELb0EED2Ev.exit.i

_ZNKSt7__cxx1112basic_stringIcSt11char_traitsIcESaIcEE11_M_is_localEv.exit.i.i.i.i.i: ; preds = %6
  %14 = load i64, ptr %9, align 8, !tbaa !15
  %15 = add i64 %14, 1
  call void @_ZdlPvm(ptr noundef %8, i64 noundef %15) #23
  br label %_ZNSt10_Head_baseILm0EN5nblib10StrongTypeINSt7__cxx1112basic_stringIcSt11char_traitsIcESaIcEEENS0_25ParticleTypeNameParameterEEELb0EED2Ev.exit.i

_ZNSt10_Head_baseILm0EN5nblib10StrongTypeINSt7__cxx1112basic_stringIcSt11char_traitsIcESaIcEEENS0_25ParticleTypeNameParameterEEELb0EED2Ev.exit.i: ; preds = %_ZNKSt7__cxx1112basic_stringIcSt11char_traitsIcESaIcEE11_M_is_localEv.exit.i.i.i.i.i, %_ZNKSt7__cxx1112basic_stringIcSt11char_traitsIcESaIcEE11_M_is_localEv.exit.thread.i.i.i.i.i
  %16 = load ptr, ptr %4, align 8, !tbaa !8
  %17 = getelementptr inbounds nuw i8, ptr %4, i64 16
  %18 = icmp eq ptr %16, %17
  br i1 %18, label %_ZNKSt7__cxx1112basic_stringIcSt11char_traitsIcESaIcEE11_M_is_localEv.exit.thread.i.i.i.i2.i, label %_ZNKSt7__cxx1112basic_stringIcSt11char_traitsIcESaIcEE11_M_is_localEv.exit.i.i.i.i1.i

_ZNKSt7__cxx1112basic_stringIcSt11char_traitsIcESaIcEE11_M_is_localEv.exit.thread.i.i.i.i2.i: ; preds = %_ZNSt10_Head_baseILm0EN5nblib10StrongTypeINSt7__cxx1112basic_stringIcSt11char_traitsIcESaIcEEENS0_25ParticleTypeNameParameterEEELb0EED2Ev.exit.i
  %19 = getelementptr inbounds nuw i8, ptr %4, i64 8
  %20 = load i64, ptr %19, align 8, !tbaa !14
  %21 = icmp ult i64 %20, 16
  call void @llvm.assume(i1 %21)
  br label %_ZNSt11_Tuple_implILm0EJN5nblib10StrongTypeINSt7__cxx1112basic_stringIcSt11char_traitsIcESaIcEEENS0_25ParticleTypeNameParameterEEES9_EED2Ev.exit

_ZNKSt7__cxx1112basic_stringIcSt11char_traitsIcESaIcEE11_M_is_localEv.exit.i.i.i.i1.i: ; preds = %_ZNSt10_Head_baseILm0EN5nblib10StrongTypeINSt7__cxx1112basic_stringIcSt11char_traitsIcESaIcEEENS0_25ParticleTypeNameParameterEEELb0EED2Ev.exit.i
  %22 = load i64, ptr %17, align 8, !tbaa !15
  %23 = add i64 %22, 1
  call void @_ZdlPvm(ptr noundef %16, i64 noundef %23) #23
  br label %_ZNSt11_Tuple_implILm0EJN5nblib10StrongTypeINSt7__cxx1112basic_stringIcSt11char_traitsIcESaIcEEENS0_25ParticleTypeNameParameterEEES9_EED2Ev.exit

_ZNSt11_Tuple_implILm0EJN5nblib10StrongTypeINSt7__cxx1112basic_stringIcSt11char_traitsIcESaIcEEENS0_25ParticleTypeNameParameterEEES9_EED2Ev.exit: ; preds = %_ZNKSt7__cxx1112basic_stringIcSt11char_traitsIcESaIcEE11_M_is_localEv.exit.thread.i.i.i.i2.i, %_ZNKSt7__cxx1112basic_stringIcSt11char_traitsIcESaIcEE11_M_is_localEv.exit.i.i.i.i1.i
  call void @llvm.lifetime.end.p0(i64 64, ptr nonnull %4) #22
  ret float %.sroa.0.0.copyload

24:                                               ; preds = %3
  %25 = landingpad { ptr, i32 }
          cleanup
  call void @_ZNSt11_Tuple_implILm0EJN5nblib10StrongTypeINSt7__cxx1112basic_stringIcSt11char_traitsIcESaIcEEENS0_25ParticleTypeNameParameterEEES9_EED2Ev(ptr noundef nonnull align 8 dereferenceable(64) %4) #22
  call void @llvm.lifetime.end.p0(i64 64, ptr nonnull %4) #22
  resume { ptr, i32 } %25
}